-----BEGIN RSA PRIVATE KEY-----
Proc-Type: 4,ENCRYPTED
DEK-Info: DES-EDE3-CBC,822208FF17FE5616

HF7ceEPJ5asQBKVLCTIfF7RW/iQ2ZTc+Wxqqz8mHGsbm74v8ChBWkjKVsFemA6ha
VhBgTqVcpA8/F+cqFbr6QXRTAiZt0jIIWWcTUqJxb5ZAHnjlcNyFUM1Scnn7Nw1+
4m35FK9MNh0zXKxC32M7qWwDH6aNxD6k3Ud1xRgpT/4ciIfkLQz1d6ogudStMrZV
NNfoOiOdOOTJAheTXpcs6X0RmgwmV8WpamBnmS5EkZrU1CFNjwB2YsRpdIkeuYDb
7LEizLykyvV5SXgT/oFqb/8nr2/JZwnWtBKbcM8HHdSI9Bv3X415QjrVFEu7MhRk
NrDIiOXOIi4l8mvPHOCN/08iesYFnbMbq6vd/O8k0ML57e+VpDVOylVzHOtflAAj
TuKb3hSZ2jtFMSPGvtDufAPnlKwHT4R6PxVOIRecWdeNT9bXCNu/o0eX1BT70o0N
7/YiXrt9B6kZFRkQgduC++pyySEIvj1m9/r6ub4rM4noQYbO8jTrIryc9KEpWMPp
cfq7yNfp8fGtVkXg8MDgDdmDxjwqrlxwmySc56LJAzGrac+rwQCXZzs4vNDE39IQ
wQNQlGjPDDEKg51Yc5DxakwPnlutwNDEVbMt/t3NKXGTuJ0ZvzNvvdZXLPB2InW/
44HH07G765bKOHFSbq7JOQAB1YmpLkVqUzeWX7MMgczMAFJ49xVRR7HpxixsSHZM
GyHi8RonCqNcaxnsGoBNEXCMILZDa3dJFyv3xQZ79rfx03JQB2XE6ijFew4Xhw0j
rJZT2ZphSB0zo3htLytnWxeNELjLE67SrsG86S3nYBKuVKuDhBM2Uw==
-----END RSA PRIVATE KEY-----
Certificate:
    Data:
        Version: 3 (0x2)
        Serial Number: 10 (0xa)
        Signature Algorithm: md5WithRSAEncryption
        Issuer: C=IS, ST=Reykjavik, L=Reykjavik, O=Kortathjonustan ehf, OU=System Operations, CN=test.korta.is/Email=korta@korta.is
        Validity
            Not Before: Dec 18 16:44:32 2003 GMT
            Not After : Dec 15 16:44:32 2013 GMT
        Subject: C=IS, ST=Reykjavik, L=Reykjavik, O=Kortathjonustan ehf, OU=RPCS Test Certificate, CN=test.rpcs.kortathjonustan.is/Email=korta@korta.is
        Subject Public Key Info:
            Public Key Algorithm: rsaEncryption
            RSA Public Key: (1024 bit)
                Modulus (1024 bit):
                    00:fa:06:f4:d0:38:1f:db:53:e4:2b:dc:b8:17:8b:
                    22:2a:91:1e:06:50:2f:31:44:8c:9c:cc:2f:a4:e8:
                    62:9e:07:f8:a4:83:e9:74:27:0c:d2:3e:b4:99:56:
                    f4:ff:25:85:58:6d:2d:20:fa:2e:bf:2f:7e:c4:82:
                    a2:fc:1f:52:64:33:f0:23:5a:ea:4f:6c:79:01:4b:
                    ae:0f:78:33:88:2e:9c:f9:c3:97:c1:ee:de:03:f8:
                    bb:19:52:fd:9b:3c:07:7f:b1:f2:96:6d:89:16:2a:
                    e4:ed:20:13:df:95:d9:31:eb:24:5e:41:de:aa:4e:
                    9c:31:58:30:6e:76:41:12:01
                Exponent: 65537 (0x10001)
        X509v3 extensions:
            X509v3 Basic Constraints: 
                CA:FALSE
            Netscape Comment: 
                korta.is Generated Test Certificate
            X509v3 Subject Key Identifier: 
                68:12:08:F8:98:E5:E9:44:02:68:61:4F:35:DE:AD:1C:E8:94:E4:92
            X509v3 Authority Key Identifier: 
                keyid:1D:16:1E:E7:D0:59:75:E8:5D:D4:08:3E:48:28:8C:C2:71:7B:6B:39
                DirName:/C=IS/ST=Reykjavik/L=Reykjavik/O=Kortathjonustan ehf/OU=System Operations/CN=test.korta.is/Email=korta@korta.is
                serial:00

    Signature Algorithm: md5WithRSAEncryption
        91:a0:10:31:7c:71:84:34:9a:84:7c:3b:ed:2f:36:95:b6:56:
        57:17:59:c0:18:97:ac:6c:e1:ea:07:e1:ad:65:4b:66:5a:ee:
        a4:96:7d:2b:ee:98:da:f1:71:6c:d4:5b:b4:3f:9a:ae:2d:64:
        04:8f:60:48:67:32:b4:a8:e0:ce:82:6f:ba:1f:b1:cb:5e:f1:
        8b:18:93:a8:71:31:27:78:35:98:50:a9:f0:9a:6d:2d:3c:4a:
        5b:de:7e:c7:b5:59:3d:83:3e:05:00:c0:64:c3:40:86:e5:c2:
        07:98:c7:74:eb:62:ba:a4:ba:b9:79:db:81:44:e9:8b:bd:2c:
        16:d0
-----BEGIN CERTIFICATE-----
MIIEETCCA3qgAwIBAgIBCjANBgkqhkiG9w0BAQQFADCBpjELMAkGA1UEBhMCSVMx
EjAQBgNVBAgTCVJleWtqYXZpazESMBAGA1UEBxMJUmV5a2phdmlrMRwwGgYDVQQK
ExNLb3J0YXRoam9udXN0YW4gZWhmMRowGAYDVQQLExFTeXN0ZW0gT3BlcmF0aW9u
czEWMBQGA1UEAxMNdGVzdC5rb3J0YS5pczEdMBsGCSqGSIb3DQEJARYOa29ydGFA
a29ydGEuaXMwHhcNMDMxMjE4MTY0NDMyWhcNMTMxMjE1MTY0NDMyWjCBuTELMAkG
A1UEBhMCSVMxEjAQBgNVBAgTCVJleWtqYXZpazESMBAGA1UEBxMJUmV5a2phdmlr
MRwwGgYDVQQKExNLb3J0YXRoam9udXN0YW4gZWhmMR4wHAYDVQQLExVSUENTIFRl
c3QgQ2VydGlmaWNhdGUxJTAjBgNVBAMTHHRlc3QucnBjcy5rb3J0YXRoam9udXN0
YW4uaXMxHTAbBgkqhkiG9w0BCQEWDmtvcnRhQGtvcnRhLmlzMIGfMA0GCSqGSIb3
DQEBAQUAA4GNADCBiQKBgQD6BvTQOB/bU+Qr3LgXiyIqkR4GUC8xRIyczC+k6GKe
B/ikg+l0JwzSPrSZVvT/JYVYbS0g+i6/L37EgqL8H1JkM/AjWupPbHkBS64PeDOI
Lpz5w5fB7t4D+LsZUv2bPAd/sfKWbYkWKuTtIBPfldkx6yReQd6qTpwxWDBudkES
AQIDAQABo4IBODCCATQwCQYDVR0TBAIwADAyBglghkgBhvhCAQ0EJRYja29ydGEu
aXMgR2VuZXJhdGVkIFRlc3QgQ2VydGlmaWNhdGUwHQYDVR0OBBYEFGgSCPiY5elE
AmhhTzXerRzolOSSMIHTBgNVHSMEgcswgciAFB0WHufQWXXoXdQIPkgojMJxe2s5
oYGspIGpMIGmMQswCQYDVQQGEwJJUzESMBAGA1UECBMJUmV5a2phdmlrMRIwEAYD
VQQHEwlSZXlramF2aWsxHDAaBgNVBAoTE0tvcnRhdGhqb251c3RhbiBlaGYxGjAY
BgNVBAsTEVN5c3RlbSBPcGVyYXRpb25zMRYwFAYDVQQDEw10ZXN0LmtvcnRhLmlz
MR0wGwYJKoZIhvcNAQkBFg5rb3J0YUBrb3J0YS5pc4IBADANBgkqhkiG9w0BAQQF
AAOBgQCRoBAxfHGENJqEfDvtLzaVtlZXF1nAGJesbOHqB+GtZUtmWu6kln0r7pja
8XFs1Fu0P5quLWQEj2BIZzK0qODOgm+6H7HLXvGLGJOocTEneDWYUKnwmm0tPEpb
3n7HtVk9gz4FAMBkw0CG5cIHmMd062K6pLq5eduBROmLvSwW0A==
-----END CERTIFICATE-----
